; Function Attrs: mustprogress nounwind uwtable
define hidden noundef ptr @_ZN13StubGenerator21generate_verify_mxcsrEv(ptr noundef nonnull align 8 dereferenceable(24) %0) local_unnamed_addr #0 align 2 {
  %2 = alloca %class.StubCodeMark, align 8
  %3 = alloca %class.Address, align 16
  %4 = alloca %class.Label, align 8
  %5 = alloca %class.ExternalAddress, align 8
  %6 = alloca %class.Address, align 8
  %7 = alloca %class.Address, align 8
  %8 = alloca %class.AddressLiteral, align 8
  %9 = alloca %class.AddressLiteral, align 8
  call void @_ZN12StubCodeMarkC1EP17StubCodeGeneratorPKcS3_(ptr noundef nonnull align 8 dereferenceable(16) %2, ptr noundef nonnull %0, ptr noundef nonnull @.str, ptr noundef nonnull @.str.11) #12
  %10 = getelementptr inbounds i8, ptr %0, i64 16
  %11 = load ptr, ptr %10, align 8
  %12 = getelementptr inbounds i8, ptr %11, i64 8
  %13 = load ptr, ptr %12, align 8
  %14 = getelementptr inbounds i8, ptr %13, i64 16
  %15 = load ptr, ptr %14, align 8
  store <4 x i32> <i32 4, i32 -1, i32 -1, i32 -1>, ptr %3, align 16
  %16 = getelementptr inbounds i8, ptr %3, i64 16
  store i32 0, ptr %16, align 16
  %17 = getelementptr inbounds i8, ptr %3, i64 20
  store i8 0, ptr %17, align 4
  %18 = getelementptr inbounds i8, ptr %3, i64 24
  store ptr getelementptr inbounds inrange(-16, 72) (i8, ptr @_ZTV10Relocation, i64 16), ptr %18, align 8
  %19 = getelementptr inbounds i8, ptr %3, i64 32
  store ptr null, ptr %19, align 16
  %20 = getelementptr inbounds i8, ptr %3, i64 40
  store i32 0, ptr %20, align 8
  %21 = load i8, ptr @CheckJNICalls, align 1
  %22 = trunc i8 %21 to i1
  br i1 %22, label %23, label %54

23:                                               ; preds = %1
  store i32 -1, ptr %4, align 8
  %24 = getelementptr inbounds i8, ptr %4, i64 20
  store i32 0, ptr %24, align 4
  %25 = getelementptr inbounds i8, ptr %4, i64 24
  store ptr null, ptr %25, align 8
  %26 = getelementptr inbounds i8, ptr %4, i64 32
  store i8 0, ptr %26, align 8
  call void @_ZN14AddressLiteralC2EPhN9relocInfo9relocTypeE(ptr noundef nonnull align 8 dereferenceable(56) %5, ptr noundef nonnull @_ZN12StubRoutines3x8610_mxcsr_stdE, i32 noundef 7) #12
  %27 = load ptr, ptr %10, align 8
  call void @_ZN9Assembler4pushE8Register(ptr noundef nonnull align 8 dereferenceable(40) %27, i32 0) #12
  %28 = load ptr, ptr %10, align 8
  call void @_ZN14MacroAssembler6subptrE8Registeri(ptr noundef nonnull align 8 dereferenceable(40) %28, i32 4, i32 noundef 8) #12
  %29 = load ptr, ptr %10, align 8
  call void @llvm.memcpy.p0.p0.i64(ptr noundef nonnull align 8 dereferenceable(21) %6, ptr noundef nonnull align 16 dereferenceable(21) %3, i64 21, i1 false)
  %30 = getelementptr inbounds i8, ptr %6, i64 24
  %31 = load ptr, ptr getelementptr inbounds inrange(-32, 56) (i8, ptr @_ZTV10Relocation, i64 32), align 8
  call void %31(ptr noundef nonnull align 8 dereferenceable(20) %18, ptr noundef nonnull align 8 dereferenceable(40) %30) #12
  call void @_ZN9Assembler7stmxcsrE7Address(ptr noundef nonnull align 8 dereferenceable(40) %29, ptr noundef nonnull %6) #12
  %32 = load ptr, ptr %10, align 8
  call void @llvm.memcpy.p0.p0.i64(ptr noundef nonnull align 8 dereferenceable(21) %7, ptr noundef nonnull align 16 dereferenceable(21) %3, i64 21, i1 false)
  %33 = getelementptr inbounds i8, ptr %7, i64 24
  %34 = load ptr, ptr %18, align 8
  %35 = getelementptr inbounds i8, ptr %34, i64 16
  %36 = load ptr, ptr %35, align 8
  call void %36(ptr noundef nonnull align 8 dereferenceable(20) %18, ptr noundef nonnull align 8 dereferenceable(40) %33) #12
  call void @_ZN9Assembler4movlE8Register7Address(ptr noundef nonnull align 8 dereferenceable(40) %32, i32 0, ptr noundef nonnull %7) #12
  %37 = load ptr, ptr %10, align 8
  call void @_ZN9Assembler4andlE8Registeri(ptr noundef nonnull align 8 dereferenceable(40) %37, i32 0, i32 noundef 65472) #12
  %38 = load ptr, ptr %10, align 8
  %39 = load ptr, ptr %5, align 8
  %40 = getelementptr inbounds i8, ptr %39, i64 16
  %41 = load ptr, ptr %40, align 8
  call void %41(ptr noundef nonnull align 8 dereferenceable(20) %5, ptr noundef nonnull align 8 dereferenceable(40) %8) #12
  %42 = getelementptr inbounds i8, ptr %8, i64 40
  %43 = getelementptr inbounds i8, ptr %5, i64 40
  call void @llvm.memcpy.p0.p0.i64(ptr noundef nonnull align 8 dereferenceable(16) %42, ptr noundef nonnull align 8 dereferenceable(16) %43, i64 16, i1 false)
  call void @_ZN14MacroAssembler5cmp32E8Register14AddressLiteralS0_(ptr noundef nonnull align 8 dereferenceable(40) %38, i32 0, ptr noundef nonnull %8, i32 10) #12
  %44 = load ptr, ptr %10, align 8
  call void @_ZN9Assembler3jccENS_9ConditionER5Labelb(ptr noundef nonnull align 8 dereferenceable(40) %44, i32 noundef 4, ptr noundef nonnull align 8 dereferenceable(33) %4, i1 noundef zeroext true) #12
  %45 = load ptr, ptr %10, align 8
  call void @_ZN14MacroAssembler4warnEPKc(ptr noundef nonnull align 8 dereferenceable(40) %45, ptr noundef nonnull @.str.12) #12
  %46 = load ptr, ptr %10, align 8
  %47 = load ptr, ptr %5, align 8
  %48 = getelementptr inbounds i8, ptr %47, i64 16
  %49 = load ptr, ptr %48, align 8
  call void %49(ptr noundef nonnull align 8 dereferenceable(20) %5, ptr noundef nonnull align 8 dereferenceable(40) %9) #12
  %50 = getelementptr inbounds i8, ptr %9, i64 40
  call void @llvm.memcpy.p0.p0.i64(ptr noundef nonnull align 8 dereferenceable(16) %50, ptr noundef nonnull align 8 dereferenceable(16) %43, i64 16, i1 false)
  call void @_ZN14MacroAssembler7ldmxcsrE14AddressLiteral8Register(ptr noundef nonnull align 8 dereferenceable(40) %46, ptr noundef nonnull %9, i32 10) #12
  %51 = load ptr, ptr %10, align 8
  call void @_ZN17AbstractAssembler4bindER5Label(ptr noundef nonnull align 8 dereferenceable(24) %51, ptr noundef nonnull align 8 dereferenceable(33) %4) #12
  %52 = load ptr, ptr %10, align 8
  call void @_ZN14MacroAssembler6addptrE8Registeri(ptr noundef nonnull align 8 dereferenceable(40) %52, i32 4, i32 noundef 8) #12
  %53 = load ptr, ptr %10, align 8
  call void @_ZN9Assembler3popE8Register(ptr noundef nonnull align 8 dereferenceable(40) %53, i32 0) #12
  %.pre = load ptr, ptr %10, align 8
  br label %54

54:                                               ; preds = %23, %1
  %55 = phi ptr [ %.pre, %23 ], [ %11, %1 ]
  call void @_ZN9Assembler3retEi(ptr noundef nonnull align 8 dereferenceable(40) %55, i32 noundef 0) #12
  call void @_ZN12StubCodeMarkD1Ev(ptr noundef nonnull align 8 dereferenceable(16) %2) #12
  ret ptr %15
}